ccopy_reg
_reconstructor
p0
(cTAPL
World
p1
c__builtin__
object
p2
Ntp3
Rp4
(dp5
S'npcs'
p6
(lp7
sS'players'
p8
(lp9
sS'spaces'
p10
(lp11
g0
(cTAPL
Space
p12
g2
Ntp13
Rp14
(dp15
S'_occupants'
p16
(lp17
sS'_world'
p18
g4
sS'_description'
p19
S'An empty, blank room'
p20
sS'_portals'
p21
(lp22
sS'_items'
p23
(lp24
sS'_name'
p25
S'The Entrance Hall'
p26
sbasS'name'
p27
S'DefaultWorld'
p28
sg23
(lp29
sS'_currentLocation'
p30
NsS'defaultLocation'
p31
g14
sb.